 SizeBenchV2.AnalysisEngine.Tests.Dllx64MinimalPDB

 Timestamp is 5747712e (Thu May 26 14:57:02 2016)

 Preferred load address is 0000000180000000

 Start         Length     Name                   Class
 0001:00000000 00001770H .text$mn                CODE
 0001:00001770 00000020H .text$mn$00             CODE
 0001:00001790 000000cdH .text$x                 CODE
 0002:00000000 000000f8H .idata$5                DATA
 0002:000000f8 00000010H .00cfg                  DATA
 0002:00000108 00000008H .CRT$XCA                DATA
 0002:00000110 00000008H .CRT$XCZ                DATA
 0002:00000118 00000008H .CRT$XIA                DATA
 0002:00000120 00000008H .CRT$XIZ                DATA
 0002:00000128 00000008H .CRT$XPA                DATA
 0002:00000130 00000008H .CRT$XPZ                DATA
 0002:00000138 00000008H .CRT$XTA                DATA
 0002:00000140 00000010H .CRT$XTZ                DATA
 0002:00000150 00000114H .rdata                  DATA
 0002:00000264 000002d4H .rdata$zzzdbg           DATA
 0002:00000538 00000008H .rtc$IAA                DATA
 0002:00000540 00000008H .rtc$IZZ                DATA
 0002:00000548 00000008H .rtc$TAA                DATA
 0002:00000550 00000008H .rtc$TZZ                DATA
 0002:00000558 0000019cH .xdata                  DATA
 0002:000006f4 00000000H .edata                  DATA
 0002:000006f4 0000003cH .idata$2                DATA
 0002:00000730 00000018H .idata$3                DATA
 0002:00000748 000000f8H .idata$4                DATA
 0002:00000840 000002c4H .idata$6                DATA
 0003:00000000 00000040H .data                   DATA
 0003:00000040 000005f8H .bss                    DATA
 0004:00000000 00000264H .pdata                  DATA
 0005:00000000 00000010H .gfids$y                DATA
 0006:00000000 00000060H .rsrc$01                DATA
 0006:00000060 00000180H .rsrc$02                DATA

  Address         Publics by Value              Rva+Base               Lib:Object

 0000:00000000       __dynamic_value_reloc_table 0000000000000000     <absolute>
 0000:00000000       __guard_iat_table          0000000000000000     <absolute>
 0000:00000000       __guard_iat_count          0000000000000000     <absolute>
 0000:00000000       __guard_fids_count         0000000000000000     <absolute>
 0000:00000000       __guard_fids_table         0000000000000000     <absolute>
 0000:00000000       ___safe_se_handler_count   0000000000000000     <absolute>
 0000:00000000       __guard_longjmp_table      0000000000000000     <absolute>
 0000:00000000       ___safe_se_handler_table   0000000000000000     <absolute>
 0000:00000000       __guard_longjmp_count      0000000000000000     <absolute>
 0000:00000100       __guard_flags              0000000000000100     <absolute>
 0000:00000000       __ImageBase                0000000180000000     <linker-defined>
 0001:00000420       _DllMainCRTStartup         0000000180001420 f   MSVCRTD:dll_dllmain.obj
 0001:00000460       ??$__crt_fast_decode_pointer@PEAP6AXXZ@@YAPEAP6AXXZQEAP6AXXZ@Z 0000000180001460 f i MSVCRTD:utility.obj
 0001:000004a0       ??$__crt_fast_encode_pointer@PEAP6AXXZ@@YAPEAP6AXXZQEAP6AXXZ@Z 00000001800014a0 f i MSVCRTD:utility.obj
 0001:000004e0       ?__crt_rotate_pointer_value@@YA_K_KH@Z 00000001800014e0 f i MSVCRTD:utility.obj
 0001:00000500       ?configure_argv@__scrt_narrow_argv_policy@@SAHXZ 0000000180001500 f i MSVCRTD:utility.obj
 0001:00000680       NtCurrentTeb               0000000180001680 f i MSVCRTD:utility.obj
 0001:00000690       __scrt_acquire_startup_lock 0000000180001690 f   MSVCRTD:utility.obj
 0001:00000700       __scrt_dllmain_after_initialize_c 0000000180001700 f   MSVCRTD:utility.obj
 0001:00000730       __scrt_dllmain_before_initialize_c 0000000180001730 f   MSVCRTD:utility.obj
 0001:00000750       __scrt_dllmain_crt_thread_attach 0000000180001750 f   MSVCRTD:utility.obj
 0001:00000780       __scrt_dllmain_crt_thread_detach 0000000180001780 f   MSVCRTD:utility.obj
 0001:000007a0       __scrt_dllmain_exception_filter 00000001800017a0 f   MSVCRTD:utility.obj
 0001:00000800       __scrt_dllmain_uninitialize_c 0000000180001800 f   MSVCRTD:utility.obj
 0001:00000830       __scrt_dllmain_uninitialize_critical 0000000180001830 f   MSVCRTD:utility.obj
 0001:00000850       __scrt_initialize_crt      0000000180001850 f   MSVCRTD:utility.obj
 0001:000008a0       __scrt_initialize_onexit_tables 00000001800018a0 f   MSVCRTD:utility.obj
 0001:000009a0       __scrt_is_nonwritable_in_current_image 00000001800019a0 f   MSVCRTD:utility.obj
 0001:00000a30       __scrt_release_startup_lock 0000000180001a30 f   MSVCRTD:utility.obj
 0001:00000a60       __scrt_uninitialize_crt    0000000180001a60 f   MSVCRTD:utility.obj
 0001:00000aa0       _onexit                    0000000180001aa0 f   MSVCRTD:utility.obj
 0001:00000b30       atexit                     0000000180001b30 f   MSVCRTD:utility.obj
 0001:00000b70       __security_init_cookie     0000000180001b70 f   MSVCRTD:gs_support.obj
 0001:00000c90       ?__scrt_initialize_type_info@@YAXXZ 0000000180001c90 f   MSVCRTD:tncleanup.obj
 0001:00000cb0       ?__scrt_uninitialize_type_info@@YAXXZ 0000000180001cb0 f   MSVCRTD:tncleanup.obj
 0001:00000cd0       __local_stdio_printf_options 0000000180001cd0 f i MSVCRTD:default_local_stdio_options.obj
 0001:00000ce0       __local_stdio_scanf_options 0000000180001ce0 f i MSVCRTD:default_local_stdio_options.obj
 0001:00000cf0       __scrt_initialize_default_local_stdio_options 0000000180001cf0 f   MSVCRTD:default_local_stdio_options.obj
 0001:00000d40       __scrt_get_dyn_tls_init_callback 0000000180001d40 f   MSVCRTD:dyn_tls_init.obj
 0001:00000d50       __crt_debugger_hook        0000000180001d50 f   MSVCRTD:utility_desktop.obj
 0001:00000d60       __scrt_fastfail            0000000180001d60 f   MSVCRTD:utility_desktop.obj
 0001:00000f00       _RTC_Initialize            0000000180001f00 f   MSVCRTD:_initsect_.obj
 0001:00000f50       _RTC_Terminate             0000000180001f50 f   MSVCRTD:_initsect_.obj
 0001:00000fa0       _guard_check_icall         0000000180001fa0 f i MSVCRTD:checkcfg.obj
 0001:00000fc0       __isa_available_init       0000000180001fc0 f   MSVCRTD:_cpu_disp_.obj
 0001:00001340       DllMain                    0000000180002340 f   dllmain.obj
 0001:00001340       _get_startup_argv_mode     0000000180002340 f   MSVCRTD:argv_mode.obj
 0001:00001350       __scrt_is_ucrt_dll_in_use  0000000180002350 f   MSVCRTD:ucrt_detection.obj
 0001:00001380       _guard_check_icall_nop     0000000180002380 f i MSVCRTD:guard_support.obj
 0001:00001390       __GSHandlerCheck           0000000180002390 f   MSVCRTD:_gshandler_.obj
 0001:000013d0       __GSHandlerCheckCommon     00000001800023d0 f   MSVCRTD:_gshandler_.obj
 0001:000014e0       __security_check_cookie    00000001800024e0 f   MSVCRTD:_amdsecgs_.obj
 0001:00001510       __raise_securityfailure    0000000180002510 f   MSVCRTD:gs_report.obj
 0001:00001550       __report_gsfailure         0000000180002550 f   MSVCRTD:gs_report.obj
 0001:000016e2       __telemetry_main_invoke_trigger 00000001800026e2 f   vcruntimed:VCRUNTIME140D.dll
 0001:000016e8       __telemetry_main_return_trigger 00000001800026e8 f   vcruntimed:VCRUNTIME140D.dll
 0001:000016ee       __C_specific_handler       00000001800026ee f   vcruntimed:VCRUNTIME140D.dll
 0001:000016f4       __std_type_info_destroy_list 00000001800026f4 f   vcruntimed:VCRUNTIME140D.dll
 0001:000016fa       _initterm                  00000001800026fa f   ucrtd:ucrtbased.dll
 0001:00001700       _initterm_e                0000000180002700 f   ucrtd:ucrtbased.dll
 0001:00001706       _seh_filter_dll            0000000180002706 f   ucrtd:ucrtbased.dll
 0001:0000170c       _configure_narrow_argv     000000018000270c f   ucrtd:ucrtbased.dll
 0001:00001712       _initialize_narrow_environment 0000000180002712 f   ucrtd:ucrtbased.dll
 0001:00001718       _initialize_onexit_table   0000000180002718 f   ucrtd:ucrtbased.dll
 0001:0000171e       _register_onexit_function  000000018000271e f   ucrtd:ucrtbased.dll
 0001:00001724       _execute_onexit_table      0000000180002724 f   ucrtd:ucrtbased.dll
 0001:0000172a       _crt_atexit                000000018000272a f   ucrtd:ucrtbased.dll
 0001:00001730       _cexit                     0000000180002730 f   ucrtd:ucrtbased.dll
 0001:00001736       IsProcessorFeaturePresent  0000000180002736 f   kernel32:KERNEL32.dll
 0001:00001740       __acrt_thread_detach       0000000180002740 f   MSVCRTD:ucrt_stubs.obj
 0001:00001740       __scrt_stub_for_acrt_thread_detach 0000000180002740 f   MSVCRTD:ucrt_stubs.obj
 0001:00001740       __vcrt_thread_attach       0000000180002740 f   MSVCRTD:ucrt_stubs.obj
 0001:00001740       __acrt_thread_attach       0000000180002740 f   MSVCRTD:ucrt_stubs.obj
 0001:00001740       __scrt_stub_for_acrt_thread_attach 0000000180002740 f   MSVCRTD:ucrt_stubs.obj
 0001:00001740       __vcrt_initialize          0000000180002740 f   MSVCRTD:ucrt_stubs.obj
 0001:00001740       __acrt_initialize          0000000180002740 f   MSVCRTD:ucrt_stubs.obj
 0001:00001740       __scrt_stub_for_acrt_initialize 0000000180002740 f   MSVCRTD:ucrt_stubs.obj
 0001:00001740       __vcrt_thread_detach       0000000180002740 f   MSVCRTD:ucrt_stubs.obj
 0001:00001750       __acrt_uninitialize        0000000180002750 f   MSVCRTD:ucrt_stubs.obj
 0001:00001750       __scrt_stub_for_acrt_uninitialize 0000000180002750 f   MSVCRTD:ucrt_stubs.obj
 0001:00001750       __vcrt_uninitialize        0000000180002750 f   MSVCRTD:ucrt_stubs.obj
 0001:00001750       __vcrt_uninitialize_critical 0000000180002750 f   MSVCRTD:ucrt_stubs.obj
 0001:00001750       __scrt_stub_for_acrt_uninitialize_critical 0000000180002750 f   MSVCRTD:ucrt_stubs.obj
 0001:00001750       __acrt_uninitialize_critical 0000000180002750 f   MSVCRTD:ucrt_stubs.obj
 0001:00001760       __scrt_stub_for_is_c_termination_complete 0000000180002760 f   MSVCRTD:ucrt_stubs.obj
 0001:00001760       _is_c_termination_complete 0000000180002760 f   MSVCRTD:ucrt_stubs.obj
 0001:00001780       _guard_dispatch_icall_nop  0000000180002780 f   MSVCRTD:_guard_dispatch_.obj
 0002:00000000       __imp_GetCurrentThreadId   0000000180003000     kernel32:KERNEL32.dll
 0002:00000008       __imp_GetCurrentProcessId  0000000180003008     kernel32:KERNEL32.dll
 0002:00000010       __imp_QueryPerformanceCounter 0000000180003010     kernel32:KERNEL32.dll
 0002:00000018       __imp_InitializeSListHead  0000000180003018     kernel32:KERNEL32.dll
 0002:00000020       __imp_TerminateProcess     0000000180003020     kernel32:KERNEL32.dll
 0002:00000028       __imp_GetCurrentProcess    0000000180003028     kernel32:KERNEL32.dll
 0002:00000030       __imp_IsProcessorFeaturePresent 0000000180003030     kernel32:KERNEL32.dll
 0002:00000038       __imp_SetUnhandledExceptionFilter 0000000180003038     kernel32:KERNEL32.dll
 0002:00000040       __imp_UnhandledExceptionFilter 0000000180003040     kernel32:KERNEL32.dll
 0002:00000048       __imp_IsDebuggerPresent    0000000180003048     kernel32:KERNEL32.dll
 0002:00000050       __imp_RtlVirtualUnwind     0000000180003050     kernel32:KERNEL32.dll
 0002:00000058       __imp_RtlLookupFunctionEntry 0000000180003058     kernel32:KERNEL32.dll
 0002:00000060       __imp_RtlCaptureContext    0000000180003060     kernel32:KERNEL32.dll
 0002:00000068       __imp_GetSystemTimeAsFileTime 0000000180003068     kernel32:KERNEL32.dll
 0002:00000070       \177KERNEL32_NULL_THUNK_DATA 0000000180003070     kernel32:KERNEL32.dll
 0002:00000078       __imp___std_type_info_destroy_list 0000000180003078     vcruntimed:VCRUNTIME140D.dll
 0002:00000080       __imp___C_specific_handler 0000000180003080     vcruntimed:VCRUNTIME140D.dll
 0002:00000088       __imp___telemetry_main_return_trigger 0000000180003088     vcruntimed:VCRUNTIME140D.dll
 0002:00000090       __imp___telemetry_main_invoke_trigger 0000000180003090     vcruntimed:VCRUNTIME140D.dll
 0002:00000098       \177VCRUNTIME140D_NULL_THUNK_DATA 0000000180003098     vcruntimed:VCRUNTIME140D.dll
 0002:000000a0       __imp__cexit               00000001800030a0     ucrtd:ucrtbased.dll
 0002:000000a8       __imp__crt_atexit          00000001800030a8     ucrtd:ucrtbased.dll
 0002:000000b0       __imp__execute_onexit_table 00000001800030b0     ucrtd:ucrtbased.dll
 0002:000000b8       __imp__register_onexit_function 00000001800030b8     ucrtd:ucrtbased.dll
 0002:000000c0       __imp__initialize_onexit_table 00000001800030c0     ucrtd:ucrtbased.dll
 0002:000000c8       __imp__initialize_narrow_environment 00000001800030c8     ucrtd:ucrtbased.dll
 0002:000000d0       __imp__configure_narrow_argv 00000001800030d0     ucrtd:ucrtbased.dll
 0002:000000d8       __imp__seh_filter_dll      00000001800030d8     ucrtd:ucrtbased.dll
 0002:000000e0       __imp__initterm_e          00000001800030e0     ucrtd:ucrtbased.dll
 0002:000000e8       __imp__initterm            00000001800030e8     ucrtd:ucrtbased.dll
 0002:000000f0       \177ucrtbased_NULL_THUNK_DATA 00000001800030f0     ucrtd:ucrtbased.dll
 0002:000000f8       __guard_check_icall_fptr   00000001800030f8     MSVCRTD:guard_support.obj
 0002:00000100       __guard_dispatch_icall_fptr 0000000180003100     MSVCRTD:guard_support.obj
 0002:00000108       __xc_a                     0000000180003108     MSVCRTD:initializers.obj
 0002:00000110       __xc_z                     0000000180003110     MSVCRTD:initializers.obj
 0002:00000118       __xi_a                     0000000180003118     MSVCRTD:initializers.obj
 0002:00000120       __xi_z                     0000000180003120     MSVCRTD:initializers.obj
 0002:00000128       __xp_a                     0000000180003128     MSVCRTD:initializers.obj
 0002:00000130       __xp_z                     0000000180003130     MSVCRTD:initializers.obj
 0002:00000138       __xt_a                     0000000180003138     MSVCRTD:initializers.obj
 0002:00000140       __xt_z                     0000000180003140     MSVCRTD:initializers.obj
 0002:00000150       _pDefaultRawDllMain        0000000180003150     MSVCRTD:dll_dllmain.obj
 0002:00000150       _pRawDllMain               0000000180003150     MSVCRTD:dll_dllmain.obj
 0002:000001d0       _load_config_used          00000001800031d0     MSVCRTD:loadcfg.obj
 0002:00000538       __rtc_iaa                  0000000180003538     MSVCRTD:_initsect_.obj
 0002:00000540       __rtc_izz                  0000000180003540     MSVCRTD:_initsect_.obj
 0002:00000548       __rtc_taa                  0000000180003548     MSVCRTD:_initsect_.obj
 0002:00000550       __rtc_tzz                  0000000180003550     MSVCRTD:_initsect_.obj
 0002:000006f4       __IMPORT_DESCRIPTOR_VCRUNTIME140D 00000001800036f4     vcruntimed:VCRUNTIME140D.dll
 0002:00000708       __IMPORT_DESCRIPTOR_ucrtbased 0000000180003708     ucrtd:ucrtbased.dll
 0002:0000071c       __IMPORT_DESCRIPTOR_KERNEL32 000000018000371c     kernel32:KERNEL32.dll
 0002:00000730       __NULL_IMPORT_DESCRIPTOR   0000000180003730     vcruntimed:VCRUNTIME140D.dll
 0003:00000000       __scrt_native_dllmain_reason 0000000180004000     MSVCRTD:utility.obj
 0003:00000008       __isa_available            0000000180004008     MSVCRTD:_cpu_disp_.obj
 0003:0000000c       __isa_enabled              000000018000400c     MSVCRTD:_cpu_disp_.obj
 0003:00000010       __memcpy_nt_iters          0000000180004010     MSVCRTD:_cpu_disp_.obj
 0003:00000018       __security_cookie          0000000180004018     MSVCRTD:gs_cookie.obj
 0003:00000020       __security_cookie_complement 0000000180004020     MSVCRTD:gs_cookie.obj
 0003:00000030       __scrt_ucrt_dll_is_in_use  0000000180004030     MSVCRTD:ucrt_stubs.obj
 0003:00000040       __@@_PchSym_@00@UyolcvmorhgnvmghUhravyvmxsUhravyvmxseCOzmzobhrhvmtrmvOgvhghOwoocGEnrmrnzokwyUgvhgkvhUhgwzucOlyq@1CCFFE66F2A88F63 0000000180004040     stdafx.obj
 0003:00000048       __scrt_current_native_startup_state 0000000180004048     MSVCRTD:utility.obj
 0003:00000050       __scrt_native_startup_lock 0000000180004050     MSVCRTD:utility.obj
 0003:00000090       ?__type_info_root_node@@3U__type_info_node@@A 0000000180004090     MSVCRTD:tncleanup.obj
 0003:000000a0       ?_OptionsStorage@?1??__local_stdio_printf_options@@9@4_KA 00000001800040a0     MSVCRTD:default_local_stdio_options.obj
 0003:000000a8       ?_OptionsStorage@?1??__local_stdio_scanf_options@@9@4_KA 00000001800040a8     MSVCRTD:default_local_stdio_options.obj
 0003:000000b0       __scrt_debugger_hook_flag  00000001800040b0     MSVCRTD:utility_desktop.obj
 0003:000000b4       __favor                    00000001800040b4     MSVCRTD:_cpu_disp_.obj
 0003:00000630       __dyn_tls_init_callback    0000000180004630     <common>

 entry point at        0001:00000420

 Static symbols

 0000:ffff7000       .debug$S                   0000000180000000     ucrtd:ucrtbased.dll
 0000:ffff7000       .debug$S                   0000000180000000     kernel32:KERNEL32.dll
 0000:ffff7000       .debug$S                   0000000180000000     kernel32:KERNEL32.dll
 0000:ffff7000       .debug$S                   0000000180000000     kernel32:KERNEL32.dll
 0000:ffff7000       .debug$S                   0000000180000000     kernel32:KERNEL32.dll
 0000:ffff7000       .debug$S                   0000000180000000     kernel32:KERNEL32.dll
 0000:ffff7000       .debug$S                   0000000180000000     kernel32:KERNEL32.dll
 0000:ffff7000       .debug$S                   0000000180000000     kernel32:KERNEL32.dll
 0000:ffff7000       .debug$S                   0000000180000000     kernel32:KERNEL32.dll
 0000:ffff7000       .debug$S                   0000000180000000     kernel32:KERNEL32.dll
 0000:ffff7000       .debug$S                   0000000180000000     kernel32:KERNEL32.dll
 0000:ffff7000       .debug$S                   0000000180000000     kernel32:KERNEL32.dll
 0000:ffff7000       .debug$S                   0000000180000000     kernel32:KERNEL32.dll
 0000:ffff7000       .debug$S                   0000000180000000     kernel32:KERNEL32.dll
 0000:ffff7000       .debug$S                   0000000180000000     kernel32:KERNEL32.dll
 0000:ffff7000       .debug$S                   0000000180000000     kernel32:KERNEL32.dll
 0000:ffff7000       .debug$S                   0000000180000000     kernel32:KERNEL32.dll
 0000:ffff7000       .debug$S                   0000000180000000     ucrtd:ucrtbased.dll
 0000:ffff7000       .debug$S                   0000000180000000     ucrtd:ucrtbased.dll
 0000:ffff7000       .debug$S                   0000000180000000     ucrtd:ucrtbased.dll
 0000:ffff7000       .debug$S                   0000000180000000     ucrtd:ucrtbased.dll
 0000:ffff7000       .debug$S                   0000000180000000     ucrtd:ucrtbased.dll
 0000:ffff7000       .debug$S                   0000000180000000     ucrtd:ucrtbased.dll
 0000:ffff7000       .debug$S                   0000000180000000     vcruntimed:VCRUNTIME140D.dll
 0000:ffff7000       .debug$S                   0000000180000000     vcruntimed:VCRUNTIME140D.dll
 0000:ffff7000       .debug$S                   0000000180000000     vcruntimed:VCRUNTIME140D.dll
 0000:ffff7000       .debug$S                   0000000180000000     vcruntimed:VCRUNTIME140D.dll
 0000:ffff7000       .debug$S                   0000000180000000     ucrtd:ucrtbased.dll
 0000:ffff7000       .debug$S                   0000000180000000     ucrtd:ucrtbased.dll
 0000:ffff7000       .debug$S                   0000000180000000     ucrtd:ucrtbased.dll
 0000:ffff7000       .debug$S                   0000000180000000     ucrtd:ucrtbased.dll
 0000:ffff7000       .debug$S                   0000000180000000     ucrtd:ucrtbased.dll
 0001:00000000       ?dllmain_crt_dispatch@@YAHQEAUHINSTANCE__@@KQEAX@Z 0000000180001000 f   MSVCRTD:dll_dllmain.obj
 0001:00000090       ?dllmain_crt_process_attach@@YAHQEAUHINSTANCE__@@QEAX@Z 0000000180001090 f   MSVCRTD:dll_dllmain.obj
 0001:000001e0       ?dllmain_crt_process_detach@@YAH_N@Z 00000001800011e0 f   MSVCRTD:dll_dllmain.obj
 0001:00000260       ?dllmain_dispatch@@YAHQEAUHINSTANCE__@@KQEAX@Z 0000000180001260 f   MSVCRTD:dll_dllmain.obj
 0001:000003d0       ?dllmain_raw@@YAHQEAUHINSTANCE__@@KQEAX@Z 00000001800013d0 f   MSVCRTD:dll_dllmain.obj
 0001:00000520       ?find_pe_section@@YAPEAU_IMAGE_SECTION_HEADER@@QEAE_K@Z 0000000180001520 f   MSVCRTD:utility.obj
 0001:000005f0       ?is_potentially_valid_image_base@@YA_NQEAX@Z 00000001800015f0 f   MSVCRTD:utility.obj
 0001:000014d0       $$000000                   00000001800024d0     MSVCRTD:_amdsecgs_.obj
 0001:00001630       capture_previous_context   0000000180002630 f   MSVCRTD:gs_report.obj
 0001:00001770       $$000000                   0000000180002770     MSVCRTD:_guard_dispatch_.obj
 0001:00001790       ?fin$0@?0??dllmain_crt_process_attach@@YAHQEAUHINSTANCE__@@QEAX@Z@4HA 0000000180002790 f   MSVCRTD:dll_dllmain.obj
 0001:000017b0       ?fin$0@?0??dllmain_crt_process_detach@@YAH_N@Z@4HA 00000001800027b0 f   MSVCRTD:dll_dllmain.obj
 0001:000017d0       ?filt$0@?0??dllmain_dispatch@@YAHQEAUHINSTANCE__@@KQEAX@Z@4HA 00000001800027d0 f   MSVCRTD:dll_dllmain.obj
 0001:00001820       __scrt_is_nonwritable_in_current_image$filt$0 0000000180002820 f   MSVCRTD:utility.obj
 0002:00000158       GS_ExceptionPointers       0000000180003158     MSVCRTD:gs_report.obj
 0002:00000558       $unwind$?dllmain_crt_process_attach@@YAHQEAUHINSTANCE__@@QEAX@Z 0000000180003558     MSVCRTD:dll_dllmain.obj
 0002:00000578       $unwind$?fin$0@?0??dllmain_crt_process_attach@@YAHQEAUHINSTANCE__@@QEAX@Z@4HA 0000000180003578     MSVCRTD:dll_dllmain.obj
 0002:00000578       $unwind$__scrt_is_nonwritable_in_current_image$filt$0 0000000180003578     MSVCRTD:utility.obj
 0002:00000578       $unwind$?fin$0@?0??dllmain_crt_process_detach@@YAH_N@Z@4HA 0000000180003578     MSVCRTD:dll_dllmain.obj
 0002:00000580       $unwind$?dllmain_crt_process_detach@@YAH_N@Z 0000000180003580     MSVCRTD:dll_dllmain.obj
 0002:000005a0       $unwind$?dllmain_raw@@YAHQEAUHINSTANCE__@@KQEAX@Z 00000001800035a0     MSVCRTD:dll_dllmain.obj
 0002:000005a0       $unwind$?dllmain_crt_dispatch@@YAHQEAUHINSTANCE__@@KQEAX@Z 00000001800035a0     MSVCRTD:dll_dllmain.obj
 0002:000005a8       $unwind$?dllmain_dispatch@@YAHQEAUHINSTANCE__@@KQEAX@Z 00000001800035a8     MSVCRTD:dll_dllmain.obj
 0002:000005c8       $unwind$?filt$0@?0??dllmain_dispatch@@YAHQEAUHINSTANCE__@@KQEAX@Z@4HA 00000001800035c8     MSVCRTD:dll_dllmain.obj
 0002:000005d0       $unwind$_DllMainCRTStartup 00000001800035d0     MSVCRTD:dll_dllmain.obj
 0002:000005d8       $unwind$atexit             00000001800035d8     MSVCRTD:utility.obj
 0002:000005d8       $unwind$__report_gsfailure 00000001800035d8     MSVCRTD:gs_report.obj
 0002:000005e0       $unwind$_onexit            00000001800035e0     MSVCRTD:utility.obj
 0002:000005e8       $unwind$__scrt_is_nonwritable_in_current_image 00000001800035e8     MSVCRTD:utility.obj
 0002:00000608       $unwind$__scrt_release_startup_lock 0000000180003608     MSVCRTD:utility.obj
 0002:00000608       $unwind$__scrt_initialize_crt 0000000180003608     MSVCRTD:utility.obj
 0002:00000610       $unwind$__scrt_uninitialize_crt 0000000180003610     MSVCRTD:utility.obj
 0002:00000618       $unwind$__scrt_initialize_onexit_tables 0000000180003618     MSVCRTD:utility.obj
 0002:00000624       $unwind$__scrt_dllmain_exception_filter 0000000180003624     MSVCRTD:utility.obj
 0002:0000062c       $unwind$__scrt_dllmain_after_initialize_c 000000018000362c     MSVCRTD:utility.obj
 0002:0000062c       $unwind$__scrt_dllmain_uninitialize_c 000000018000362c     MSVCRTD:utility.obj
 0002:0000062c       $unwind$__scrt_dllmain_before_initialize_c 000000018000362c     MSVCRTD:utility.obj
 0002:0000062c       $unwind$?__scrt_uninitialize_type_info@@YAXXZ 000000018000362c     MSVCRTD:tncleanup.obj
 0002:0000062c       $unwind$__scrt_dllmain_uninitialize_critical 000000018000362c     MSVCRTD:utility.obj
 0002:0000062c       $unwind$?configure_argv@__scrt_narrow_argv_policy@@SAHXZ 000000018000362c     MSVCRTD:utility.obj
 0002:0000062c       $unwind$__scrt_dllmain_crt_thread_detach 000000018000362c     MSVCRTD:utility.obj
 0002:0000062c       $unwind$__scrt_dllmain_crt_thread_attach 000000018000362c     MSVCRTD:utility.obj
 0002:0000062c       $unwind$?__scrt_initialize_type_info@@YAXXZ 000000018000362c     MSVCRTD:tncleanup.obj
 0002:00000634       $unwind$?find_pe_section@@YAPEAU_IMAGE_SECTION_HEADER@@QEAE_K@Z 0000000180003634     MSVCRTD:utility.obj
 0002:0000063c       $unwind$__security_init_cookie 000000018000363c     MSVCRTD:gs_support.obj
 0002:0000063c       $unwind$__scrt_acquire_startup_lock 000000018000363c     MSVCRTD:utility.obj
 0002:00000644       $unwind$__scrt_initialize_default_local_stdio_options 0000000180003644     MSVCRTD:default_local_stdio_options.obj
 0002:0000064c       $unwind$__scrt_fastfail    000000018000364c     MSVCRTD:utility_desktop.obj
 0002:00000658       $unwind$_RTC_Initialize    0000000180003658     MSVCRTD:_initsect_.obj
 0002:00000658       $unwind$_RTC_Terminate     0000000180003658     MSVCRTD:_initsect_.obj
 0002:00000664       $chain$0$_RTC_Initialize   0000000180003664     MSVCRTD:_initsect_.obj
 0002:00000678       $chain$1$_RTC_Initialize   0000000180003678     MSVCRTD:_initsect_.obj
 0002:00000688       $chain$0$_RTC_Terminate    0000000180003688     MSVCRTD:_initsect_.obj
 0002:0000069c       $chain$1$_RTC_Terminate    000000018000369c     MSVCRTD:_initsect_.obj
 0002:000006ac       $unwind$__isa_available_init 00000001800036ac     MSVCRTD:_cpu_disp_.obj
 0002:000006bc       $unwind$__scrt_is_ucrt_dll_in_use 00000001800036bc     MSVCRTD:ucrt_detection.obj
 0002:000006c4       $unwind$__GSHandlerCheckCommon 00000001800036c4     MSVCRTD:_gshandler_.obj
 0002:000006cc       $unwind$__GSHandlerCheck   00000001800036cc     MSVCRTD:_gshandler_.obj
 0002:000006d8       $xdatasym                  00000001800036d8     MSVCRTD:_amdsecgs_.obj
 0002:000006e0       $xdatasym                  00000001800036e0     MSVCRTD:_guard_dispatch_.obj
 0002:000006e4       $unwind$capture_previous_context 00000001800036e4     MSVCRTD:gs_report.obj
 0002:000006ec       $unwind$__raise_securityfailure 00000001800036ec     MSVCRTD:gs_report.obj
 0002:000006ec       $unwind$_guard_check_icall 00000001800036ec     MSVCRTD:checkcfg.obj
 0002:000006ec       $unwind$?is_potentially_valid_image_base@@YA_NQEAX@Z 00000001800036ec     MSVCRTD:utility.obj
 0002:000006ec       $unwind$??$__crt_fast_decode_pointer@PEAP6AXXZ@@YAPEAP6AXXZQEAP6AXXZ@Z 00000001800036ec     MSVCRTD:utility.obj
 0002:000006ec       $unwind$??$__crt_fast_encode_pointer@PEAP6AXXZ@@YAPEAP6AXXZQEAP6AXXZ@Z 00000001800036ec     MSVCRTD:utility.obj
 0002:000008bc       .idata$6                   00000001800038bc     vcruntimed:VCRUNTIME140D.dll
 0002:0000099e       .idata$6                   000000018000399e     ucrtd:ucrtbased.dll
 0002:00000af6       .idata$6                   0000000180003af6     kernel32:KERNEL32.dll
 0003:00000044       ?__proc_attached@@3HA      0000000180004044     MSVCRTD:dll_dllmain.obj
 0003:00000058       ?module_local_atexit_table@@3U_onexit_table_t@@A 0000000180004058     MSVCRTD:utility.obj
 0003:00000070       ?module_local_at_quick_exit_table@@3U_onexit_table_t@@A 0000000180004070     MSVCRTD:utility.obj
 0003:00000088       ?is_initialized_as_dll@@3_NA 0000000180004088     MSVCRTD:utility.obj
 0003:000000c0       GS_ExceptionRecord         00000001800040c0     MSVCRTD:gs_report.obj
 0003:00000160       GS_ContextRecord           0000000180004160     MSVCRTD:gs_report.obj
 0004:00000000       $pdata$?dllmain_crt_dispatch@@YAHQEAUHINSTANCE__@@KQEAX@Z 0000000180005000     MSVCRTD:dll_dllmain.obj
 0004:0000000c       $pdata$?dllmain_crt_process_attach@@YAHQEAUHINSTANCE__@@QEAX@Z 000000018000500c     MSVCRTD:dll_dllmain.obj
 0004:00000018       $pdata$?dllmain_crt_process_detach@@YAH_N@Z 0000000180005018     MSVCRTD:dll_dllmain.obj
 0004:00000024       $pdata$?dllmain_dispatch@@YAHQEAUHINSTANCE__@@KQEAX@Z 0000000180005024     MSVCRTD:dll_dllmain.obj
 0004:00000030       $pdata$?dllmain_raw@@YAHQEAUHINSTANCE__@@KQEAX@Z 0000000180005030     MSVCRTD:dll_dllmain.obj
 0004:0000003c       $pdata$_DllMainCRTStartup  000000018000503c     MSVCRTD:dll_dllmain.obj
 0004:00000048       $pdata$??$__crt_fast_decode_pointer@PEAP6AXXZ@@YAPEAP6AXXZQEAP6AXXZ@Z 0000000180005048     MSVCRTD:utility.obj
 0004:00000054       $pdata$??$__crt_fast_encode_pointer@PEAP6AXXZ@@YAPEAP6AXXZQEAP6AXXZ@Z 0000000180005054     MSVCRTD:utility.obj
 0004:00000060       $pdata$?configure_argv@__scrt_narrow_argv_policy@@SAHXZ 0000000180005060     MSVCRTD:utility.obj
 0004:0000006c       $pdata$?find_pe_section@@YAPEAU_IMAGE_SECTION_HEADER@@QEAE_K@Z 000000018000506c     MSVCRTD:utility.obj
 0004:00000078       $pdata$?is_potentially_valid_image_base@@YA_NQEAX@Z 0000000180005078     MSVCRTD:utility.obj
 0004:00000084       $pdata$__scrt_acquire_startup_lock 0000000180005084     MSVCRTD:utility.obj
 0004:00000090       $pdata$__scrt_dllmain_after_initialize_c 0000000180005090     MSVCRTD:utility.obj
 0004:0000009c       $pdata$__scrt_dllmain_before_initialize_c 000000018000509c     MSVCRTD:utility.obj
 0004:000000a8       $pdata$__scrt_dllmain_crt_thread_attach 00000001800050a8     MSVCRTD:utility.obj
 0004:000000b4       $pdata$__scrt_dllmain_crt_thread_detach 00000001800050b4     MSVCRTD:utility.obj
 0004:000000c0       $pdata$__scrt_dllmain_exception_filter 00000001800050c0     MSVCRTD:utility.obj
 0004:000000cc       $pdata$__scrt_dllmain_uninitialize_c 00000001800050cc     MSVCRTD:utility.obj
 0004:000000d8       $pdata$__scrt_dllmain_uninitialize_critical 00000001800050d8     MSVCRTD:utility.obj
 0004:000000e4       $pdata$__scrt_initialize_crt 00000001800050e4     MSVCRTD:utility.obj
 0004:000000f0       $pdata$__scrt_initialize_onexit_tables 00000001800050f0     MSVCRTD:utility.obj
 0004:000000fc       $pdata$__scrt_is_nonwritable_in_current_image 00000001800050fc     MSVCRTD:utility.obj
 0004:00000108       $pdata$__scrt_release_startup_lock 0000000180005108     MSVCRTD:utility.obj
 0004:00000114       $pdata$__scrt_uninitialize_crt 0000000180005114     MSVCRTD:utility.obj
 0004:00000120       $pdata$_onexit             0000000180005120     MSVCRTD:utility.obj
 0004:0000012c       $pdata$atexit              000000018000512c     MSVCRTD:utility.obj
 0004:00000138       $pdata$__security_init_cookie 0000000180005138     MSVCRTD:gs_support.obj
 0004:00000144       $pdata$?__scrt_initialize_type_info@@YAXXZ 0000000180005144     MSVCRTD:tncleanup.obj
 0004:00000150       $pdata$?__scrt_uninitialize_type_info@@YAXXZ 0000000180005150     MSVCRTD:tncleanup.obj
 0004:0000015c       $pdata$__scrt_initialize_default_local_stdio_options 000000018000515c     MSVCRTD:default_local_stdio_options.obj
 0004:00000168       $pdata$__scrt_fastfail     0000000180005168     MSVCRTD:utility_desktop.obj
 0004:00000174       $pdata$_RTC_Initialize     0000000180005174     MSVCRTD:_initsect_.obj
 0004:00000180       $pdata$0$_RTC_Initialize   0000000180005180     MSVCRTD:_initsect_.obj
 0004:0000018c       $pdata$1$_RTC_Initialize   000000018000518c     MSVCRTD:_initsect_.obj
 0004:00000198       $pdata$_RTC_Terminate      0000000180005198     MSVCRTD:_initsect_.obj
 0004:000001a4       $pdata$0$_RTC_Terminate    00000001800051a4     MSVCRTD:_initsect_.obj
 0004:000001b0       $pdata$1$_RTC_Terminate    00000001800051b0     MSVCRTD:_initsect_.obj
 0004:000001bc       $pdata$_guard_check_icall  00000001800051bc     MSVCRTD:checkcfg.obj
 0004:000001c8       $pdata$__isa_available_init 00000001800051c8     MSVCRTD:_cpu_disp_.obj
 0004:000001d4       $pdata$__scrt_is_ucrt_dll_in_use 00000001800051d4     MSVCRTD:ucrt_detection.obj
 0004:000001e0       $pdata$__GSHandlerCheck    00000001800051e0     MSVCRTD:_gshandler_.obj
 0004:000001ec       $pdata$__GSHandlerCheckCommon 00000001800051ec     MSVCRTD:_gshandler_.obj
 0004:00000204       $pdata$__raise_securityfailure 0000000180005204     MSVCRTD:gs_report.obj
 0004:00000210       $pdata$__report_gsfailure  0000000180005210     MSVCRTD:gs_report.obj
 0004:0000021c       $pdata$capture_previous_context 000000018000521c     MSVCRTD:gs_report.obj
 0004:00000234       $pdata$?fin$0@?0??dllmain_crt_process_attach@@YAHQEAUHINSTANCE__@@QEAX@Z@4HA 0000000180005234     MSVCRTD:dll_dllmain.obj
 0004:00000240       $pdata$?fin$0@?0??dllmain_crt_process_detach@@YAH_N@Z@4HA 0000000180005240     MSVCRTD:dll_dllmain.obj
 0004:0000024c       $pdata$?filt$0@?0??dllmain_dispatch@@YAHQEAUHINSTANCE__@@KQEAX@Z@4HA 000000018000524c     MSVCRTD:dll_dllmain.obj
 0004:00000258       $pdata$__scrt_is_nonwritable_in_current_image$filt$0 0000000180005258     MSVCRTD:utility.obj
 0005:00000000       __guard_fids_?dllmain_crt_process_attach@@YAHQEAUHINSTANCE__@@QEAX@Z 0000000180006000     MSVCRTD:dll_dllmain.obj
 0005:00000008       __guard_fids_?dllmain_dispatch@@YAHQEAUHINSTANCE__@@KQEAX@Z 0000000180006008     MSVCRTD:dll_dllmain.obj
 0005:0000000c       __guard_fids__             000000018000600c     MSVCRTD:guard_support.obj
 0006:00000060       $R000000                   0000000180007060     * linker generated manifest res *

 Exports

  ordinal    name

